VPrince Charles
p0
.I01
.I0
.I00
.I1948
.I11
.I14
.I21
.I14
.I39
.I0
.I1
.I01
.I1
.I0
.I00
.VBuckingham Palace
p0
.I0
.I10
.I0
.I00
.I51
.I30
.I0
.I01
.I100
.VTime from London Times.\u000a1979.08.27: Favourive uncle assasinated\u000a1981.07.29: Married to Diana\u000a1988: Lost his friend in a skiing accident\u000a1990-92.12.9: Broken arm\u000a1996.08.28: Divorce\u000a1997.08.31: Diana's death in Paris\u000a1997.09.06: Diana's funeral
p0
.